target datalayout = "e-m:e-p270:32:32-p271:32:32-p272:64:64-i64:64-i128:128-f80:128-n8:16:32:64-S128"
target triple = "x86_64-pc-linux-gnu"

%struct._lv_obj_t = type { ptr, ptr, ptr, ptr, ptr, %struct.lv_area_t, i32, i16, i16 }
%struct.lv_area_t = type { i32, i32, i32, i32 }
%struct.lv_event_list_t = type { %struct._lv_array_t, i8 }
%struct._lv_array_t = type { ptr, i32, i32, i32, i8 }
%struct._lv_obj_spec_attr_t = type { ptr, ptr, %struct.lv_event_list_t, %struct.lv_point_t, i32, i32, i16, i16 }
%struct.lv_point_t = type { i32, i32 }

; Function Attrs: nounwind uwtable
define i32 @lv_obj_get_index(ptr noundef %0) #0 {
  %2 = alloca i32, align 4
  %3 = alloca ptr, align 8
  %4 = alloca ptr, align 8
  %5 = alloca i32, align 4
  %6 = alloca i32, align 4
  store ptr %0, ptr %3, align 8, !tbaa !3
  br label %7

7:                                                ; preds = %1
  %8 = load ptr, ptr %3, align 8, !tbaa !3
  %9 = icmp ne ptr %8, null
  br i1 %9, label %14, label %10

10:                                               ; preds = %7
  br label %11

11:                                               ; preds = %10
  br label %12

12:                                               ; preds = %11
  br label %13

13:                                               ; preds = %12, %13
  br label %13

14:                                               ; preds = %7
  br label %15

15:                                               ; preds = %14
  call void @llvm.lifetime.start.p0(i64 8, ptr %4) #3
  %16 = load ptr, ptr %3, align 8, !tbaa !3
  %17 = call ptr @lv_obj_get_parent(ptr noundef %16)
  store ptr %17, ptr %4, align 8, !tbaa !3
  %18 = load ptr, ptr %4, align 8, !tbaa !3
  %19 = icmp eq ptr %18, null
  br i1 %19, label %20, label %21

20:                                               ; preds = %15
  store i32 -1, ptr %2, align 4
  store i32 1, ptr %5, align 4
  br label %59

21:                                               ; preds = %15
  call void @llvm.lifetime.start.p0(i64 4, ptr %6) #3
  store i32 0, ptr %6, align 4, !tbaa !37
  store i32 0, ptr %6, align 4, !tbaa !37
  br label %22

22:                                               ; preds = %46, %21
  %23 = load i32, ptr %6, align 4, !tbaa !37
  %24 = load ptr, ptr %4, align 8, !tbaa !3
  %25 = getelementptr inbounds nuw %struct._lv_obj_t, ptr %24, i32 0, i32 2
  %26 = load ptr, ptr %25, align 8, !tbaa !43
  %27 = getelementptr inbounds nuw %struct._lv_obj_spec_attr_t, ptr %26, i32 0, i32 6
  %28 = load i16, ptr %27, align 8, !tbaa !64
  %29 = zext i16 %28 to i32
  %30 = icmp slt i32 %23, %29
  br i1 %30, label %31, label %49

31:                                               ; preds = %22
  %32 = load ptr, ptr %4, align 8, !tbaa !3
  %33 = getelementptr inbounds nuw %struct._lv_obj_t, ptr %32, i32 0, i32 2
  %34 = load ptr, ptr %33, align 8, !tbaa !43
  %35 = getelementptr inbounds nuw %struct._lv_obj_spec_attr_t, ptr %34, i32 0, i32 0
  %36 = load ptr, ptr %35, align 8, !tbaa !66
  %37 = load i32, ptr %6, align 4, !tbaa !37
  %38 = sext i32 %37 to i64
  %39 = getelementptr inbounds ptr, ptr %36, i64 %38
  %40 = load ptr, ptr %39, align 8, !tbaa !3
  %41 = load ptr, ptr %3, align 8, !tbaa !3
  %42 = icmp eq ptr %40, %41
  br i1 %42, label %43, label %45

43:                                               ; preds = %31
  %44 = load i32, ptr %6, align 4, !tbaa !37
  store i32 %44, ptr %2, align 4
  store i32 1, ptr %5, align 4
  br label %58

45:                                               ; preds = %31
  br label %46

46:                                               ; preds = %45
  %47 = load i32, ptr %6, align 4, !tbaa !37
  %48 = add nsw i32 %47, 1
  store i32 %48, ptr %6, align 4, !tbaa !37
  br label %22, !llvm.loop !76

49:                                               ; preds = %22
  br label %50

50:                                               ; preds = %49
  br label %51

51:                                               ; preds = %50
  br label %52

52:                                               ; preds = %51
  br label %53

53:                                               ; preds = %52
  br label %54

54:                                               ; preds = %55, %53
  br label %55

55:                                               ; preds = %54
  br label %54

56:                                               ; No predecessors!
  br label %57

57:                                               ; preds = %56
  store i32 -1, ptr %2, align 4
  store i32 1, ptr %5, align 4
  br label %58

58:                                               ; preds = %57, %43
  call void @llvm.lifetime.end.p0(i64 4, ptr %6) #3
  br label %59

59:                                               ; preds = %58, %20
  call void @llvm.lifetime.end.p0(i64 8, ptr %4) #3
  %60 = load i32, ptr %2, align 4
  ret i32 %60
}

; Function Attrs: nounwind uwtable
define ptr @lv_obj_get_parent(ptr noundef %0) #0 {
  %2 = alloca ptr, align 8
  %3 = alloca ptr, align 8
  store ptr %0, ptr %3, align 8, !tbaa !3
  %4 = load ptr, ptr %3, align 8, !tbaa !3
  %5 = icmp eq ptr %4, null
  br i1 %5, label %6, label %7

6:                                                ; preds = %1
  store ptr null, ptr %2, align 8
  br label %20

7:                                                ; preds = %1
  br label %8

8:                                                ; preds = %7
  %9 = load ptr, ptr %3, align 8, !tbaa !3
  %10 = icmp ne ptr %9, null
  br i1 %10, label %15, label %11

11:                                               ; preds = %8
  br label %12

12:                                               ; preds = %11
  br label %13

13:                                               ; preds = %12
  br label %14

14:                                               ; preds = %13, %14
  br label %14

15:                                               ; preds = %8
  br label %16

16:                                               ; preds = %15
  %17 = load ptr, ptr %3, align 8, !tbaa !3
  %18 = getelementptr inbounds nuw %struct._lv_obj_t, ptr %17, i32 0, i32 1
  %19 = load ptr, ptr %18, align 8, !tbaa !30
  store ptr %19, ptr %2, align 8
  br label %20

20:                                               ; preds = %16, %6
  %21 = load ptr, ptr %2, align 8
  ret ptr %21
}

; Function Attrs: nounwind uwtable
define void @lv_obj_swap(ptr noundef %0, ptr noundef %1) #0 {
  %3 = alloca ptr, align 8
  %4 = alloca ptr, align 8
  %5 = alloca ptr, align 8
  %6 = alloca ptr, align 8
  %7 = alloca i64, align 8
  %8 = alloca i64, align 8
  store ptr %0, ptr %3, align 8, !tbaa !3
  store ptr %1, ptr %4, align 8, !tbaa !3
  br label %9

9:                                                ; preds = %2
  %10 = load ptr, ptr %3, align 8, !tbaa !3
  %11 = icmp ne ptr %10, null
  br i1 %11, label %16, label %12

12:                                               ; preds = %9
  br label %13

13:                                               ; preds = %12
  br label %14

14:                                               ; preds = %13
  br label %15

15:                                               ; preds = %14, %15
  br label %15

16:                                               ; preds = %9
  br label %17

17:                                               ; preds = %16
  br label %18

18:                                               ; preds = %17
  %19 = load ptr, ptr %4, align 8, !tbaa !3
  %20 = icmp ne ptr %19, null
  br i1 %20, label %25, label %21

21:                                               ; preds = %18
  br label %22

22:                                               ; preds = %21
  br label %23

23:                                               ; preds = %22
  br label %24

24:                                               ; preds = %23, %24
  br label %24

25:                                               ; preds = %18
  br label %26

26:                                               ; preds = %25
  call void @llvm.lifetime.start.p0(i64 8, ptr %5) #3
  %27 = load ptr, ptr %3, align 8, !tbaa !3
  %28 = call ptr @lv_obj_get_parent(ptr noundef %27)
  store ptr %28, ptr %5, align 8, !tbaa !3
  call void @llvm.lifetime.start.p0(i64 8, ptr %6) #3
  %29 = load ptr, ptr %4, align 8, !tbaa !3
  %30 = call ptr @lv_obj_get_parent(ptr noundef %29)
  store ptr %30, ptr %6, align 8, !tbaa !3
  call void @llvm.lifetime.start.p0(i64 8, ptr %7) #3
  %31 = load ptr, ptr %3, align 8, !tbaa !3
  %32 = call i32 @lv_obj_get_index(ptr noundef %31)
  %33 = sext i32 %32 to i64
  store i64 %33, ptr %7, align 8, !tbaa !79
  call void @llvm.lifetime.start.p0(i64 8, ptr %8) #3
  %34 = load ptr, ptr %4, align 8, !tbaa !3
  %35 = call i32 @lv_obj_get_index(ptr noundef %34)
  %36 = sext i32 %35 to i64
  store i64 %36, ptr %8, align 8, !tbaa !79
  %37 = load ptr, ptr %6, align 8, !tbaa !3
  %38 = load ptr, ptr %4, align 8, !tbaa !3
  %39 = call i32 @lv_obj_send_event(ptr noundef %37, i32 noundef 44, ptr noundef %38)
  %40 = load ptr, ptr %5, align 8, !tbaa !3
  %41 = load ptr, ptr %3, align 8, !tbaa !3
  %42 = call i32 @lv_obj_send_event(ptr noundef %40, i32 noundef 44, ptr noundef %41)
  %43 = load ptr, ptr %4, align 8, !tbaa !3
  %44 = load ptr, ptr %5, align 8, !tbaa !3
  %45 = getelementptr inbounds nuw %struct._lv_obj_t, ptr %44, i32 0, i32 2
  %46 = load ptr, ptr %45, align 8, !tbaa !43
  %47 = getelementptr inbounds nuw %struct._lv_obj_spec_attr_t, ptr %46, i32 0, i32 0
  %48 = load ptr, ptr %47, align 8, !tbaa !66
  %49 = load i64, ptr %7, align 8, !tbaa !79
  %50 = getelementptr inbounds nuw ptr, ptr %48, i64 %49
  store ptr %43, ptr %50, align 8, !tbaa !3
  %51 = load ptr, ptr %5, align 8, !tbaa !3
  %52 = load ptr, ptr %4, align 8, !tbaa !3
  %53 = getelementptr inbounds nuw %struct._lv_obj_t, ptr %52, i32 0, i32 1
  store ptr %51, ptr %53, align 8, !tbaa !30
  %54 = load ptr, ptr %3, align 8, !tbaa !3
  %55 = load ptr, ptr %6, align 8, !tbaa !3
  %56 = getelementptr inbounds nuw %struct._lv_obj_t, ptr %55, i32 0, i32 2
  %57 = load ptr, ptr %56, align 8, !tbaa !43
  %58 = getelementptr inbounds nuw %struct._lv_obj_spec_attr_t, ptr %57, i32 0, i32 0
  %59 = load ptr, ptr %58, align 8, !tbaa !66
  %60 = load i64, ptr %8, align 8, !tbaa !79
  %61 = getelementptr inbounds nuw ptr, ptr %59, i64 %60
  store ptr %54, ptr %61, align 8, !tbaa !3
  %62 = load ptr, ptr %6, align 8, !tbaa !3
  %63 = load ptr, ptr %3, align 8, !tbaa !3
  %64 = getelementptr inbounds nuw %struct._lv_obj_t, ptr %63, i32 0, i32 1
  store ptr %62, ptr %64, align 8, !tbaa !30
  %65 = load ptr, ptr %5, align 8, !tbaa !3
  %66 = load ptr, ptr %4, align 8, !tbaa !3
  %67 = call i32 @lv_obj_send_event(ptr noundef %65, i32 noundef 42, ptr noundef %66)
  %68 = load ptr, ptr %5, align 8, !tbaa !3
  %69 = load ptr, ptr %4, align 8, !tbaa !3
  %70 = call i32 @lv_obj_send_event(ptr noundef %68, i32 noundef 43, ptr noundef %69)
  %71 = load ptr, ptr %6, align 8, !tbaa !3
  %72 = load ptr, ptr %3, align 8, !tbaa !3
  %73 = call i32 @lv_obj_send_event(ptr noundef %71, i32 noundef 42, ptr noundef %72)
  %74 = load ptr, ptr %6, align 8, !tbaa !3
  %75 = load ptr, ptr %3, align 8, !tbaa !3
  %76 = call i32 @lv_obj_send_event(ptr noundef %74, i32 noundef 43, ptr noundef %75)
  %77 = load ptr, ptr %5, align 8, !tbaa !3
  call void @lv_obj_invalidate(ptr noundef %77)
  %78 = load ptr, ptr %5, align 8, !tbaa !3
  %79 = load ptr, ptr %6, align 8, !tbaa !3
  %80 = icmp ne ptr %78, %79
  br i1 %80, label %81, label %83

81:                                               ; preds = %26
  %82 = load ptr, ptr %6, align 8, !tbaa !3
  call void @lv_obj_invalidate(ptr noundef %82)
  br label %83

83:                                               ; preds = %81, %26
  %84 = load ptr, ptr %3, align 8, !tbaa !3
  %85 = load ptr, ptr %4, align 8, !tbaa !3
  call void @lv_group_swap_obj(ptr noundef %84, ptr noundef %85)
  call void @llvm.lifetime.end.p0(i64 8, ptr %8) #3
  call void @llvm.lifetime.end.p0(i64 8, ptr %7) #3
  call void @llvm.lifetime.end.p0(i64 8, ptr %6) #3
  call void @llvm.lifetime.end.p0(i64 8, ptr %5) #3
  ret void
}