; Function Attrs: nounwind uwtable
define void @lv_obj_swap(ptr noundef %0, ptr noundef %1) local_unnamed_addr #0 {
  %.not = icmp eq ptr %0, null
  br i1 %.not, label %.preheader, label %3

.preheader:                                       ; preds = %2, %.preheader
  br label %.preheader

3:                                                ; preds = %2
  %.not35 = icmp eq ptr %1, null
  br i1 %.not35, label %.preheader54, label %lv_obj_get_parent.exit.i

.preheader54:                                     ; preds = %3, %.preheader54
  br label %.preheader54

lv_obj_get_parent.exit.i:                         ; preds = %3
  %4 = getelementptr inbounds nuw i8, ptr %0, i64 8
  %5 = load ptr, ptr %4, align 8, !tbaa !3
  %6 = getelementptr inbounds nuw i8, ptr %1, i64 8
  %7 = load ptr, ptr %6, align 8, !tbaa !3
  %8 = icmp eq ptr %5, null
  br i1 %8, label %lv_obj_get_parent.exit.i40, label %.preheader14.i

.preheader14.i:                                   ; preds = %lv_obj_get_parent.exit.i
  %9 = getelementptr inbounds nuw i8, ptr %5, i64 16
  %10 = load ptr, ptr %9, align 8, !tbaa !37
  %11 = getelementptr inbounds nuw i8, ptr %10, i64 64
  %12 = load i16, ptr %11, align 8, !tbaa !38
  %.not17.i = icmp eq i16 %12, 0
  br i1 %.not17.i, label %.preheader13.i.preheader, label %.lr.ph.i

.lr.ph.i:                                         ; preds = %.preheader14.i
  %13 = load ptr, ptr %10, align 8, !tbaa !42
  %wide.trip.count.i = zext i16 %12 to i64
  br label %14

14:                                               ; preds = %18, %.lr.ph.i
  %indvars.iv.i = phi i64 [ 0, %.lr.ph.i ], [ %indvars.iv.next.i, %18 ]
  %15 = getelementptr inbounds nuw ptr, ptr %13, i64 %indvars.iv.i
  %16 = load ptr, ptr %15, align 8, !tbaa !33
  %17 = icmp eq ptr %16, %0
  br i1 %17, label %.loopexit.loopexit.i, label %18

18:                                               ; preds = %14
  %indvars.iv.next.i = add nuw nsw i64 %indvars.iv.i, 1
  %exitcond.not.i = icmp eq i64 %indvars.iv.next.i, %wide.trip.count.i
  br i1 %exitcond.not.i, label %.preheader13.i.preheader, label %14, !llvm.loop !58

.preheader13.i.preheader:                         ; preds = %18, %.preheader14.i
  br label %.preheader13.i

.preheader13.i:                                   ; preds = %.preheader13.i.preheader, %.preheader13.i
  br label %.preheader13.i

.loopexit.loopexit.i:                             ; preds = %14
  %sext = shl i64 %indvars.iv.i, 32
  %19 = ashr exact i64 %sext, 32
  br label %lv_obj_get_parent.exit.i40

lv_obj_get_parent.exit.i40:                       ; preds = %.loopexit.loopexit.i, %lv_obj_get_parent.exit.i
  %.010.i = phi i64 [ -1, %lv_obj_get_parent.exit.i ], [ %19, %.loopexit.loopexit.i ]
  %20 = icmp eq ptr %7, null
  br i1 %20, label %lv_obj_get_index.exit52, label %.preheader14.i41

.preheader14.i41:                                 ; preds = %lv_obj_get_parent.exit.i40
  %21 = getelementptr inbounds nuw i8, ptr %7, i64 16
  %22 = load ptr, ptr %21, align 8, !tbaa !37
  %23 = getelementptr inbounds nuw i8, ptr %22, i64 64
  %24 = load i16, ptr %23, align 8, !tbaa !38
  %.not17.i42 = icmp eq i16 %24, 0
  br i1 %.not17.i42, label %.preheader13.i48.preheader, label %.lr.ph.i43

.lr.ph.i43:                                       ; preds = %.preheader14.i41
  %25 = load ptr, ptr %22, align 8, !tbaa !42
  %wide.trip.count.i44 = zext i16 %24 to i64
  br label %26

26:                                               ; preds = %30, %.lr.ph.i43
  %indvars.iv.i45 = phi i64 [ 0, %.lr.ph.i43 ], [ %indvars.iv.next.i46, %30 ]
  %27 = getelementptr inbounds nuw ptr, ptr %25, i64 %indvars.iv.i45
  %28 = load ptr, ptr %27, align 8, !tbaa !33
  %29 = icmp eq ptr %28, %1
  br i1 %29, label %.loopexit.loopexit.i49, label %30

30:                                               ; preds = %26
  %indvars.iv.next.i46 = add nuw nsw i64 %indvars.iv.i45, 1
  %exitcond.not.i47 = icmp eq i64 %indvars.iv.next.i46, %wide.trip.count.i44
  br i1 %exitcond.not.i47, label %.preheader13.i48.preheader, label %26, !llvm.loop !58

.preheader13.i48.preheader:                       ; preds = %30, %.preheader14.i41
  br label %.preheader13.i48

.preheader13.i48:                                 ; preds = %.preheader13.i48.preheader, %.preheader13.i48
  br label %.preheader13.i48

.loopexit.loopexit.i49:                           ; preds = %26
  %sext53 = shl i64 %indvars.iv.i45, 32
  %31 = ashr exact i64 %sext53, 32
  br label %lv_obj_get_index.exit52

lv_obj_get_index.exit52:                          ; preds = %lv_obj_get_parent.exit.i40, %.loopexit.loopexit.i49
  %.010.i50 = phi i64 [ -1, %lv_obj_get_parent.exit.i40 ], [ %31, %.loopexit.loopexit.i49 ]
  %32 = tail call i32 @lv_obj_send_event(ptr noundef %7, i32 noundef 44, ptr noundef nonnull %1) #6
  %33 = tail call i32 @lv_obj_send_event(ptr noundef %5, i32 noundef 44, ptr noundef nonnull %0) #6
  %34 = getelementptr inbounds nuw i8, ptr %5, i64 16
  %35 = load ptr, ptr %34, align 8, !tbaa !37
  %36 = load ptr, ptr %35, align 8, !tbaa !42
  %37 = getelementptr inbounds nuw ptr, ptr %36, i64 %.010.i
  store ptr %1, ptr %37, align 8, !tbaa !33
  store ptr %5, ptr %6, align 8, !tbaa !3
  %38 = getelementptr inbounds nuw i8, ptr %7, i64 16
  %39 = load ptr, ptr %38, align 8, !tbaa !37
  %40 = load ptr, ptr %39, align 8, !tbaa !42
  %41 = getelementptr inbounds nuw ptr, ptr %40, i64 %.010.i50
  store ptr %0, ptr %41, align 8, !tbaa !33
  store ptr %7, ptr %4, align 8, !tbaa !3
  %42 = tail call i32 @lv_obj_send_event(ptr noundef %5, i32 noundef 42, ptr noundef nonnull %1) #6
  %43 = tail call i32 @lv_obj_send_event(ptr noundef %5, i32 noundef 43, ptr noundef nonnull %1) #6
  %44 = tail call i32 @lv_obj_send_event(ptr noundef %7, i32 noundef 42, ptr noundef nonnull %0) #6
  %45 = tail call i32 @lv_obj_send_event(ptr noundef %7, i32 noundef 43, ptr noundef nonnull %0) #6
  tail call void @lv_obj_invalidate(ptr noundef %5) #6
  %.not36 = icmp eq ptr %5, %7
  br i1 %.not36, label %47, label %46

46:                                               ; preds = %lv_obj_get_index.exit52
  tail call void @lv_obj_invalidate(ptr noundef nonnull %7) #6
  br label %47

47:                                               ; preds = %46, %lv_obj_get_index.exit52
  tail call void @lv_group_swap_obj(ptr noundef nonnull %0, ptr noundef nonnull %1) #6
  ret void
}